target datalayout = "e-m:e-p270:32:32-p271:32:32-p272:64:64-i64:64-i128:128-f80:128-n8:16:32:64-S128"
target triple = "x86_64-pc-linux-gnu"

%struct.opj_jp2 = type { ptr, ptr, ptr, i32, i32, i32, i32, i32, i32, i32, i32, i32, i32, i32, i32, i32, i32, ptr, ptr, i64, i64, i32, i32, i32, %struct.opj_jp2_color, i32, i8, i8 }
%struct.opj_jp2_color = type { ptr, i32, ptr, ptr, i8 }
%struct.opj_jp2_comps = type { i32, i32, i32 }

; Function Attrs: nounwind uwtable
define internal ptr @opj_jp2_write_bpcc(ptr noundef %0, ptr noundef %1) #0 {
  %3 = alloca ptr, align 8
  %4 = alloca ptr, align 8
  %5 = alloca ptr, align 8
  %6 = alloca i32, align 4
  %7 = alloca i32, align 4
  %8 = alloca ptr, align 8
  %9 = alloca ptr, align 8
  %10 = alloca i32, align 4
  store ptr %0, ptr %4, align 8, !tbaa !3
  store ptr %1, ptr %5, align 8, !tbaa !105
  call void @llvm.lifetime.start.p0(i64 4, ptr %6) #5
  call void @llvm.lifetime.start.p0(i64 4, ptr %7) #5
  call void @llvm.lifetime.start.p0(i64 8, ptr %8) #5
  call void @llvm.lifetime.start.p0(i64 8, ptr %9) #5
  %11 = load ptr, ptr %4, align 8, !tbaa !3
  %12 = getelementptr inbounds nuw %struct.opj_jp2, ptr %11, i32 0, i32 5
  %13 = load i32, ptr %12, align 8, !tbaa !49
  %14 = add i32 8, %13
  store i32 %14, ptr %7, align 4, !tbaa !39
  %15 = load i32, ptr %7, align 4, !tbaa !39
  %16 = zext i32 %15 to i64
  %17 = call ptr @opj_calloc(i64 noundef 1, i64 noundef %16)
  store ptr %17, ptr %8, align 8, !tbaa !106
  %18 = load ptr, ptr %8, align 8, !tbaa !106
  %19 = icmp eq ptr %18, null
  br i1 %19, label %20, label %21

20:                                               ; preds = %2
  store ptr null, ptr %3, align 8
  store i32 1, ptr %10, align 4
  br label %55

21:                                               ; preds = %2
  %22 = load ptr, ptr %8, align 8, !tbaa !106
  store ptr %22, ptr %9, align 8, !tbaa !106
  %23 = load ptr, ptr %9, align 8, !tbaa !106
  %24 = load i32, ptr %7, align 4, !tbaa !39
  call void @opj_write_bytes_LE(ptr noundef %23, i32 noundef %24, i32 noundef 4)
  %25 = load ptr, ptr %9, align 8, !tbaa !106
  %26 = getelementptr inbounds i8, ptr %25, i64 4
  store ptr %26, ptr %9, align 8, !tbaa !106
  %27 = load ptr, ptr %9, align 8, !tbaa !106
  call void @opj_write_bytes_LE(ptr noundef %27, i32 noundef 1651532643, i32 noundef 4)
  %28 = load ptr, ptr %9, align 8, !tbaa !106
  %29 = getelementptr inbounds i8, ptr %28, i64 4
  store ptr %29, ptr %9, align 8, !tbaa !106
  store i32 0, ptr %6, align 4, !tbaa !39
  br label %30

30:                                               ; preds = %48, %21
  %31 = load i32, ptr %6, align 4, !tbaa !39
  %32 = load ptr, ptr %4, align 8, !tbaa !3
  %33 = getelementptr inbounds nuw %struct.opj_jp2, ptr %32, i32 0, i32 5
  %34 = load i32, ptr %33, align 8, !tbaa !49
  %35 = icmp ult i32 %31, %34
  br i1 %35, label %36, label %51

36:                                               ; preds = %30
  %37 = load ptr, ptr %9, align 8, !tbaa !106
  %38 = load ptr, ptr %4, align 8, !tbaa !3
  %39 = getelementptr inbounds nuw %struct.opj_jp2, ptr %38, i32 0, i32 18
  %40 = load ptr, ptr %39, align 8, !tbaa !50
  %41 = load i32, ptr %6, align 4, !tbaa !39
  %42 = zext i32 %41 to i64
  %43 = getelementptr inbounds nuw %struct.opj_jp2_comps, ptr %40, i64 %42
  %44 = getelementptr inbounds nuw %struct.opj_jp2_comps, ptr %43, i32 0, i32 2
  %45 = load i32, ptr %44, align 4, !tbaa !67
  call void @opj_write_bytes_LE(ptr noundef %37, i32 noundef %45, i32 noundef 1)
  %46 = load ptr, ptr %9, align 8, !tbaa !106
  %47 = getelementptr inbounds nuw i8, ptr %46, i32 1
  store ptr %47, ptr %9, align 8, !tbaa !106
  br label %48

48:                                               ; preds = %36
  %49 = load i32, ptr %6, align 4, !tbaa !39
  %50 = add i32 %49, 1
  store i32 %50, ptr %6, align 4, !tbaa !39
  br label %30, !llvm.loop !198

51:                                               ; preds = %30
  %52 = load i32, ptr %7, align 4, !tbaa !39
  %53 = load ptr, ptr %5, align 8, !tbaa !105
  store i32 %52, ptr %53, align 4, !tbaa !39
  %54 = load ptr, ptr %8, align 8, !tbaa !106
  store ptr %54, ptr %3, align 8
  store i32 1, ptr %10, align 4
  br label %55

55:                                               ; preds = %51, %20
  call void @llvm.lifetime.end.p0(i64 8, ptr %9) #5
  call void @llvm.lifetime.end.p0(i64 8, ptr %8) #5
  call void @llvm.lifetime.end.p0(i64 4, ptr %7) #5
  call void @llvm.lifetime.end.p0(i64 4, ptr %6) #5
  %56 = load ptr, ptr %3, align 8
  ret ptr %56
}