; Function Attrs: nounwind uwtable
define internal ptr @opj_jp2_write_bpcc(ptr noundef readonly captures(none) %0, ptr noundef writeonly captures(none) %1) #0 {
  %3 = getelementptr inbounds nuw i8, ptr %0, i64 32
  %4 = load i32, ptr %3, align 8, !tbaa !82
  %5 = add i32 %4, 8
  %6 = zext i32 %5 to i64
  %7 = tail call ptr @opj_calloc(i64 noundef 1, i64 noundef %6) #6
  %8 = icmp eq ptr %7, null
  br i1 %8, label %22, label %9

9:                                                ; preds = %2
  tail call void @opj_write_bytes_LE(ptr noundef nonnull %7, i32 noundef %5, i32 noundef 4) #6
  %10 = getelementptr inbounds nuw i8, ptr %7, i64 4
  tail call void @opj_write_bytes_LE(ptr noundef nonnull %10, i32 noundef 1651532643, i32 noundef 4) #6
  %11 = load i32, ptr %3, align 8, !tbaa !82
  %.not = icmp eq i32 %11, 0
  br i1 %.not, label %._crit_edge, label %.lr.ph

.lr.ph:                                           ; preds = %9
  %12 = getelementptr inbounds nuw i8, ptr %7, i64 8
  %13 = getelementptr inbounds nuw i8, ptr %0, i64 88
  br label %14

14:                                               ; preds = %.lr.ph, %14
  %indvars.iv = phi i64 [ 0, %.lr.ph ], [ %indvars.iv.next, %14 ]
  %.023 = phi ptr [ %12, %.lr.ph ], [ %18, %14 ]
  %15 = load ptr, ptr %13, align 8, !tbaa !83
  %16 = getelementptr inbounds nuw %struct.opj_jp2_comps, ptr %15, i64 %indvars.iv, i32 2
  %17 = load i32, ptr %16, align 4, !tbaa !95
  tail call void @opj_write_bytes_LE(ptr noundef nonnull %.023, i32 noundef %17, i32 noundef 1) #6
  %18 = getelementptr inbounds nuw i8, ptr %.023, i64 1
  %indvars.iv.next = add nuw nsw i64 %indvars.iv, 1
  %19 = load i32, ptr %3, align 8, !tbaa !82
  %20 = zext i32 %19 to i64
  %21 = icmp samesign ult i64 %indvars.iv.next, %20
  br i1 %21, label %14, label %._crit_edge, !llvm.loop !162

._crit_edge:                                      ; preds = %14, %9
  store i32 %5, ptr %1, align 4, !tbaa !46
  br label %22

22:                                               ; preds = %2, %._crit_edge
  ret ptr %7
}